; Function Attrs: mustprogress nofree norecurse nosync nounwind willreturn memory(argmem: readwrite) uwtable
define void @bmcg2_sat_solver_set_conflict_budget(ptr noundef captures(none) initializes((1128, 1136)) %0, i32 noundef %1) local_unnamed_addr #8 {
  %3 = icmp sgt i32 %1, 0
  br i1 %3, label %4, label %10

4:                                                ; preds = %2
  %5 = zext nneg i32 %1 to i64
  %6 = getelementptr inbounds nuw i8, ptr %0, i64 360
  %7 = load i64, ptr %6, align 8, !tbaa !88
  %8 = add nsw i64 %7, %5
  %9 = getelementptr inbounds nuw i8, ptr %0, i64 1128
  store i64 %8, ptr %9, align 8, !tbaa !89
  br label %12

10:                                               ; preds = %2
  %11 = getelementptr inbounds nuw i8, ptr %0, i64 1128
  tail call void @llvm.memset.p0.i64(ptr noundef nonnull align 8 dereferenceable(16) %11, i8 -1, i64 16, i1 false)
  br label %12

12:                                               ; preds = %10, %4
  ret void
}